target datalayout = "e-m:e-p270:32:32-p271:32:32-p272:64:64-i64:64-i128:128-f80:128-n8:16:32:64-S128"
target triple = "x86_64-pc-linux-gnu"

%struct.pmix_object_t = type { %union.pthread_mutex_t, ptr, i32, %struct.pmix_tma }
%union.pthread_mutex_t = type { %struct.__pthread_mutex_s }
%struct.__pthread_mutex_s = type { i32, i32, i32, i32, i32, i16, i16, %struct.__pthread_internal_list }
%struct.__pthread_internal_list = type { ptr, ptr }
%struct.pmix_tma = type { ptr, ptr, ptr, ptr, ptr, ptr, ptr, ptr }
%struct.pmix_mca_base_framework_t = type { ptr, ptr, ptr, ptr, ptr, ptr, i32, i32, ptr, ptr, i32, i32, %struct.pmix_list_t, %struct.pmix_list_t }
%struct.pmix_list_t = type { %struct.pmix_object_t, %struct.pmix_list_item_t, i64 }
%struct.pmix_list_item_t = type { %struct.pmix_object_t, ptr, ptr, i32 }
%struct.pmix_output_desc_t = type { i8, i8, i32, i8, i32, ptr, ptr, i32, ptr, i32, i8, i8, i8, i8, ptr, i32, i32 }
%struct.pmix_buffer_t = type { %struct.pmix_object_t, i8, ptr, ptr, ptr, i64, i64 }

@pmix_bfrops_base_framework = external global %struct.pmix_mca_base_framework_t, align 8
@pmix_output_info = external global [0 x %struct.pmix_output_desc_t], align 8
@.str.5 = private unnamed_addr constant [31 x i8] c"pmix20_bfrop_unpack_byte * %d\0A\00", align 1

; Function Attrs: nounwind uwtable
define i32 @pmix20_bfrop_unpack_byte(ptr noundef %0, ptr noundef %1, ptr noundef %2, ptr noundef %3, i16 noundef zeroext %4) #0 {
  %6 = alloca i32, align 4
  %7 = alloca ptr, align 8
  %8 = alloca ptr, align 8
  %9 = alloca ptr, align 8
  %10 = alloca ptr, align 8
  %11 = alloca i16, align 2
  store ptr %0, ptr %7, align 8, !tbaa !13
  store ptr %1, ptr %8, align 8, !tbaa !3
  store ptr %2, ptr %9, align 8, !tbaa !3
  store ptr %3, ptr %10, align 8, !tbaa !7
  store i16 %4, ptr %11, align 2, !tbaa !9
  %12 = load i32, ptr getelementptr inbounds nuw (%struct.pmix_mca_base_framework_t, ptr @pmix_bfrops_base_framework, i32 0, i32 11), align 4, !tbaa !15
  %13 = icmp sge i32 %12, 0
  br i1 %13, label %14, label %28

14:                                               ; preds = %5
  %15 = load i32, ptr getelementptr inbounds nuw (%struct.pmix_mca_base_framework_t, ptr @pmix_bfrops_base_framework, i32 0, i32 11), align 4, !tbaa !15
  %16 = icmp slt i32 %15, 64
  br i1 %16, label %17, label %28

17:                                               ; preds = %14
  %18 = load i32, ptr getelementptr inbounds nuw (%struct.pmix_mca_base_framework_t, ptr @pmix_bfrops_base_framework, i32 0, i32 11), align 4, !tbaa !15
  %19 = sext i32 %18 to i64
  %20 = getelementptr inbounds [0 x %struct.pmix_output_desc_t], ptr @pmix_output_info, i64 0, i64 %19
  %21 = getelementptr inbounds nuw %struct.pmix_output_desc_t, ptr %20, i32 0, i32 2
  %22 = load i32, ptr %21, align 4, !tbaa !26
  %23 = icmp sge i32 %22, 20
  br i1 %23, label %24, label %28

24:                                               ; preds = %17
  %25 = load i32, ptr getelementptr inbounds nuw (%struct.pmix_mca_base_framework_t, ptr @pmix_bfrops_base_framework, i32 0, i32 11), align 4, !tbaa !15
  %26 = load ptr, ptr %10, align 8, !tbaa !7
  %27 = load i32, ptr %26, align 4, !tbaa !11
  call void (i32, ptr, ...) @pmix_output(i32 noundef %25, ptr noundef @.str.5, i32 noundef %27)
  br label %28

28:                                               ; preds = %24, %17, %14, %5
  %29 = load ptr, ptr %8, align 8, !tbaa !3
  %30 = load ptr, ptr %10, align 8, !tbaa !7
  %31 = load i32, ptr %30, align 4, !tbaa !11
  %32 = sext i32 %31 to i64
  %33 = call zeroext i1 @pmix_bfrop_too_small(ptr noundef %29, i64 noundef %32)
  br i1 %33, label %34, label %35

34:                                               ; preds = %28
  store i32 -50, ptr %6, align 4
  br label %50

35:                                               ; preds = %28
  %36 = load ptr, ptr %9, align 8, !tbaa !3
  %37 = load ptr, ptr %8, align 8, !tbaa !3
  %38 = getelementptr inbounds nuw %struct.pmix_buffer_t, ptr %37, i32 0, i32 4
  %39 = load ptr, ptr %38, align 8, !tbaa !37
  %40 = load ptr, ptr %10, align 8, !tbaa !7
  %41 = load i32, ptr %40, align 4, !tbaa !11
  %42 = sext i32 %41 to i64
  call void @llvm.memcpy.p0.p0.i64(ptr align 1 %36, ptr align 1 %39, i64 %42, i1 false)
  %43 = load ptr, ptr %10, align 8, !tbaa !7
  %44 = load i32, ptr %43, align 4, !tbaa !11
  %45 = load ptr, ptr %8, align 8, !tbaa !3
  %46 = getelementptr inbounds nuw %struct.pmix_buffer_t, ptr %45, i32 0, i32 4
  %47 = load ptr, ptr %46, align 8, !tbaa !37
  %48 = sext i32 %44 to i64
  %49 = getelementptr inbounds i8, ptr %47, i64 %48
  store ptr %49, ptr %46, align 8, !tbaa !37
  store i32 0, ptr %6, align 4
  br label %50

50:                                               ; preds = %35, %34
  %51 = load i32, ptr %6, align 4
  ret i32 %51
}

; Function Attrs: nounwind uwtable
define i32 @pmix20_bfrop_unpack_persist(ptr noundef %0, ptr noundef %1, ptr noundef %2, ptr noundef %3, i16 noundef zeroext %4) #0 {
  %6 = alloca ptr, align 8
  %7 = alloca ptr, align 8
  %8 = alloca ptr, align 8
  %9 = alloca ptr, align 8
  %10 = alloca i16, align 2
  store ptr %0, ptr %6, align 8, !tbaa !13
  store ptr %1, ptr %7, align 8, !tbaa !3
  store ptr %2, ptr %8, align 8, !tbaa !3
  store ptr %3, ptr %9, align 8, !tbaa !7
  store i16 %4, ptr %10, align 2, !tbaa !9
  %11 = load ptr, ptr %6, align 8, !tbaa !13
  %12 = load ptr, ptr %7, align 8, !tbaa !3
  %13 = load ptr, ptr %8, align 8, !tbaa !3
  %14 = load ptr, ptr %9, align 8, !tbaa !7
  %15 = call i32 @pmix20_bfrop_unpack_byte(ptr noundef %11, ptr noundef %12, ptr noundef %13, ptr noundef %14, i16 noundef zeroext 12)
  ret i32 %15
}